target datalayout = "e-m:e-p270:32:32-p271:32:32-p272:64:64-i64:64-i128:128-f80:128-n8:16:32:64-S128"
target triple = "x86_64-pc-linux-gnu"

%struct.GVC_s = type { %struct.GVCOMMON_s, ptr, i8, ptr, i32, ptr, ptr, [5 x ptr], [5 x ptr], ptr, ptr, %struct.dtdisc_s_, ptr, %struct.gvplugin_active_textlayout_s, ptr, ptr, ptr, %struct.gvplugin_active_layout_s, ptr, ptr, ptr, %struct.pointf_s, %struct.pointf_s, %struct.pointf_s, %struct.point, %struct.boxf, i32, i8, i8, i8, ptr, ptr, ptr, ptr, i32, ptr, ptr, double, ptr, %struct.color_s, i32 }
%struct.GVCOMMON_s = type { ptr, ptr, i32, i8, i8, ptr, ptr, ptr, i32, ptr, i32 }
%struct.dtdisc_s_ = type { i32, i32, i32, ptr, ptr, ptr }
%struct.gvplugin_active_textlayout_s = type { ptr, i32, ptr }
%struct.gvplugin_active_layout_s = type { ptr, i32, ptr, ptr }
%struct.pointf_s = type { double, double }
%struct.point = type { i32, i32 }
%struct.boxf = type { %struct.pointf_s, %struct.pointf_s }
%struct.color_s = type { %union.anon, i32 }
%union.anon = type { [4 x double] }
%struct.GVG_s = type { ptr, ptr, ptr, i32, ptr }

@stderr = external global ptr, align 8
@gvNextInputGraph.fn = internal global ptr null, align 8
@gvNextInputGraph.fp = internal global ptr null, align 8
@gvNextInputGraph.oldfp = internal global ptr null, align 8
@gvNextInputGraph.gidx = internal global i32 0, align 4
@stdin = external global ptr, align 8
@.str.36 = private unnamed_addr constant [2 x i8] c"r\00", align 1
@.str.37 = private unnamed_addr constant [23 x i8] c"%s: can't open %s: %s\0A\00", align 1
@graphviz_errors = external global i32, align 4
@.str.38 = private unnamed_addr constant [8 x i8] c"<stdin>\00", align 1
@.str.134 = private unnamed_addr constant [58 x i8] c"integer overflow when trying to allocate %zu * %zu bytes\0A\00", align 1
@.str.135 = private unnamed_addr constant [49 x i8] c"out of memory when trying to allocate %zu bytes\0A\00", align 1

; Function Attrs: inlinehint nounwind uwtable
define internal ptr @gv_calloc(i64 noundef %0, i64 noundef %1) #5 {
  %3 = alloca i64, align 8
  %4 = alloca i64, align 8
  %5 = alloca ptr, align 8
  store i64 %0, ptr %3, align 8, !tbaa !52
  store i64 %1, ptr %4, align 8, !tbaa !52
  %6 = load i64, ptr %3, align 8, !tbaa !52
  %7 = icmp ugt i64 %6, 0
  br i1 %7, label %8, label %18

8:                                                ; preds = %2
  %9 = load i64, ptr %3, align 8, !tbaa !52
  %10 = udiv i64 -1, %9
  %11 = load i64, ptr %4, align 8, !tbaa !52
  %12 = icmp ult i64 %10, %11
  br i1 %12, label %13, label %18

13:                                               ; preds = %8
  %14 = load ptr, ptr @stderr, align 8, !tbaa !10
  %15 = load i64, ptr %3, align 8, !tbaa !52
  %16 = load i64, ptr %4, align 8, !tbaa !52
  %17 = call i32 (ptr, ptr, ...) @fprintf(ptr noundef %14, ptr noundef @.str.134, i64 noundef %15, i64 noundef %16) #16
  call void @graphviz_exit(i32 noundef 1) #17
  unreachable

18:                                               ; preds = %8, %2
  call void @llvm.lifetime.start.p0(i64 8, ptr %5) #16
  %19 = load i64, ptr %3, align 8, !tbaa !52
  %20 = load i64, ptr %4, align 8, !tbaa !52
  %21 = call noalias ptr @calloc(i64 noundef %19, i64 noundef %20) #20
  store ptr %21, ptr %5, align 8, !tbaa !78
  %22 = load i64, ptr %3, align 8, !tbaa !52
  %23 = icmp ugt i64 %22, 0
  br i1 %23, label %24, label %36

24:                                               ; preds = %18
  %25 = load i64, ptr %4, align 8, !tbaa !52
  %26 = icmp ugt i64 %25, 0
  br i1 %26, label %27, label %36

27:                                               ; preds = %24
  %28 = load ptr, ptr %5, align 8, !tbaa !78
  %29 = icmp eq ptr %28, null
  br i1 %29, label %30, label %36

30:                                               ; preds = %27
  %31 = load ptr, ptr @stderr, align 8, !tbaa !10
  %32 = load i64, ptr %3, align 8, !tbaa !52
  %33 = load i64, ptr %4, align 8, !tbaa !52
  %34 = mul i64 %32, %33
  %35 = call i32 (ptr, ptr, ...) @fprintf(ptr noundef %31, ptr noundef @.str.135, i64 noundef %34) #16
  call void @graphviz_exit(i32 noundef 1) #17
  unreachable

36:                                               ; preds = %27, %24, %18
  %37 = load ptr, ptr %5, align 8, !tbaa !78
  call void @llvm.lifetime.end.p0(i64 8, ptr %5) #16
  ret ptr %37
}

; Function Attrs: inlinehint nounwind uwtable
define internal ptr @gv_alloc(i64 noundef %0) #5 {
  %2 = alloca i64, align 8
  store i64 %0, ptr %2, align 8, !tbaa !52
  %3 = load i64, ptr %2, align 8, !tbaa !52
  %4 = call ptr @gv_calloc(i64 noundef 1, i64 noundef %3)
  ret ptr %4
}

; Function Attrs: nounwind uwtable
define internal i32 @gvg_init(ptr noundef %0, ptr noundef %1, ptr noundef %2, i32 noundef %3) #0 {
  %5 = alloca ptr, align 8
  %6 = alloca ptr, align 8
  %7 = alloca ptr, align 8
  %8 = alloca i32, align 4
  %9 = alloca ptr, align 8
  store ptr %0, ptr %5, align 8, !tbaa !12
  store ptr %1, ptr %6, align 8, !tbaa !14
  store ptr %2, ptr %7, align 8, !tbaa !3
  store i32 %3, ptr %8, align 4, !tbaa !8
  call void @llvm.lifetime.start.p0(i64 8, ptr %9) #16
  %10 = call ptr @gv_alloc(i64 noundef 40)
  store ptr %10, ptr %9, align 8, !tbaa !16
  %11 = load ptr, ptr %5, align 8, !tbaa !12
  %12 = getelementptr inbounds nuw %struct.GVC_s, ptr %11, i32 0, i32 5
  %13 = load ptr, ptr %12, align 8, !tbaa !18
  %14 = icmp ne ptr %13, null
  br i1 %14, label %19, label %15

15:                                               ; preds = %4
  %16 = load ptr, ptr %9, align 8, !tbaa !16
  %17 = load ptr, ptr %5, align 8, !tbaa !12
  %18 = getelementptr inbounds nuw %struct.GVC_s, ptr %17, i32 0, i32 5
  store ptr %16, ptr %18, align 8, !tbaa !18
  br label %25

19:                                               ; preds = %4
  %20 = load ptr, ptr %9, align 8, !tbaa !16
  %21 = load ptr, ptr %5, align 8, !tbaa !12
  %22 = getelementptr inbounds nuw %struct.GVC_s, ptr %21, i32 0, i32 6
  %23 = load ptr, ptr %22, align 8, !tbaa !37
  %24 = getelementptr inbounds nuw %struct.GVG_s, ptr %23, i32 0, i32 1
  store ptr %20, ptr %24, align 8, !tbaa !38
  br label %25

25:                                               ; preds = %19, %15
  %26 = load ptr, ptr %9, align 8, !tbaa !16
  %27 = load ptr, ptr %5, align 8, !tbaa !12
  %28 = getelementptr inbounds nuw %struct.GVC_s, ptr %27, i32 0, i32 6
  store ptr %26, ptr %28, align 8, !tbaa !37
  %29 = load ptr, ptr %5, align 8, !tbaa !12
  %30 = load ptr, ptr %9, align 8, !tbaa !16
  %31 = getelementptr inbounds nuw %struct.GVG_s, ptr %30, i32 0, i32 0
  store ptr %29, ptr %31, align 8, !tbaa !40
  %32 = load ptr, ptr %6, align 8, !tbaa !14
  %33 = load ptr, ptr %9, align 8, !tbaa !16
  %34 = getelementptr inbounds nuw %struct.GVG_s, ptr %33, i32 0, i32 4
  store ptr %32, ptr %34, align 8, !tbaa !41
  %35 = load ptr, ptr %7, align 8, !tbaa !3
  %36 = load ptr, ptr %9, align 8, !tbaa !16
  %37 = getelementptr inbounds nuw %struct.GVG_s, ptr %36, i32 0, i32 2
  store ptr %35, ptr %37, align 8, !tbaa !42
  %38 = load i32, ptr %8, align 4, !tbaa !8
  %39 = load ptr, ptr %9, align 8, !tbaa !16
  %40 = getelementptr inbounds nuw %struct.GVG_s, ptr %39, i32 0, i32 3
  store i32 %38, ptr %40, align 8, !tbaa !43
  call void @llvm.lifetime.end.p0(i64 8, ptr %9) #16
  ret i32 0
}

; Function Attrs: nounwind uwtable
define ptr @gvNextInputGraph(ptr noundef %0) #0 {
  %2 = alloca ptr, align 8
  %3 = alloca ptr, align 8
  store ptr %0, ptr %2, align 8, !tbaa !12
  call void @llvm.lifetime.start.p0(i64 8, ptr %3) #16
  store ptr null, ptr %3, align 8, !tbaa !14
  br label %4

4:                                                ; preds = %96, %1
  %5 = load ptr, ptr %3, align 8, !tbaa !14
  %6 = icmp ne ptr %5, null
  %7 = xor i1 %6, true
  br i1 %7, label %8, label %97

8:                                                ; preds = %4
  %9 = load ptr, ptr @gvNextInputGraph.fp, align 8, !tbaa !10
  %10 = icmp ne ptr %9, null
  br i1 %10, label %60, label %11

11:                                               ; preds = %8
  %12 = load ptr, ptr %2, align 8, !tbaa !12
  %13 = getelementptr inbounds nuw %struct.GVC_s, ptr %12, i32 0, i32 3
  %14 = load ptr, ptr %13, align 8, !tbaa !56
  %15 = getelementptr inbounds ptr, ptr %14, i64 0
  %16 = load ptr, ptr %15, align 8, !tbaa !3
  store ptr %16, ptr @gvNextInputGraph.fn, align 8, !tbaa !3
  %17 = icmp ne ptr %16, null
  br i1 %17, label %27, label %18

18:                                               ; preds = %11
  %19 = load ptr, ptr %2, align 8, !tbaa !12
  %20 = getelementptr inbounds nuw %struct.GVC_s, ptr %19, i32 0, i32 4
  %21 = load i32, ptr %20, align 8, !tbaa !89
  %22 = add nsw i32 %21, 1
  store i32 %22, ptr %20, align 8, !tbaa !89
  %23 = icmp eq i32 %21, 0
  br i1 %23, label %24, label %26

24:                                               ; preds = %18
  %25 = load ptr, ptr @stdin, align 8, !tbaa !10
  store ptr %25, ptr @gvNextInputGraph.fp, align 8, !tbaa !10
  br label %26

26:                                               ; preds = %24, %18
  br label %59

27:                                               ; preds = %11
  br label %28

28:                                               ; preds = %47, %27
  %29 = load ptr, ptr %2, align 8, !tbaa !12
  %30 = getelementptr inbounds nuw %struct.GVC_s, ptr %29, i32 0, i32 3
  %31 = load ptr, ptr %30, align 8, !tbaa !56
  %32 = load ptr, ptr %2, align 8, !tbaa !12
  %33 = getelementptr inbounds nuw %struct.GVC_s, ptr %32, i32 0, i32 4
  %34 = load i32, ptr %33, align 8, !tbaa !89
  %35 = add nsw i32 %34, 1
  store i32 %35, ptr %33, align 8, !tbaa !89
  %36 = sext i32 %34 to i64
  %37 = getelementptr inbounds ptr, ptr %31, i64 %36
  %38 = load ptr, ptr %37, align 8, !tbaa !3
  store ptr %38, ptr @gvNextInputGraph.fn, align 8, !tbaa !3
  %39 = icmp ne ptr %38, null
  br i1 %39, label %40, label %45

40:                                               ; preds = %28
  %41 = load ptr, ptr @gvNextInputGraph.fn, align 8, !tbaa !3
  %42 = call ptr @gv_fopen(ptr noundef %41, ptr noundef @.str.36)
  store ptr %42, ptr @gvNextInputGraph.fp, align 8, !tbaa !10
  %43 = icmp ne ptr %42, null
  %44 = xor i1 %43, true
  br label %45

45:                                               ; preds = %40, %28
  %46 = phi i1 [ false, %28 ], [ %44, %40 ]
  br i1 %46, label %47, label %58

47:                                               ; preds = %45
  %48 = load ptr, ptr %2, align 8, !tbaa !12
  %49 = getelementptr inbounds nuw %struct.GVC_s, ptr %48, i32 0, i32 0
  %50 = getelementptr inbounds nuw %struct.GVCOMMON_s, ptr %49, i32 0, i32 1
  %51 = load ptr, ptr %50, align 8, !tbaa !45
  %52 = load ptr, ptr @gvNextInputGraph.fn, align 8, !tbaa !3
  %53 = call ptr @__errno_location() #21
  %54 = load i32, ptr %53, align 4, !tbaa !8
  %55 = call ptr @strerror(i32 noundef %54) #16
  call void (ptr, ...) @agerrorf(ptr noundef @.str.37, ptr noundef %51, ptr noundef %52, ptr noundef %55)
  %56 = load i32, ptr @graphviz_errors, align 4, !tbaa !8
  %57 = add nsw i32 %56, 1
  store i32 %57, ptr @graphviz_errors, align 4, !tbaa !8
  br label %28, !llvm.loop !90

58:                                               ; preds = %45
  br label %59

59:                                               ; preds = %58, %26
  br label %60

60:                                               ; preds = %59, %8
  %61 = load ptr, ptr @gvNextInputGraph.fp, align 8, !tbaa !10
  %62 = icmp eq ptr %61, null
  br i1 %62, label %63, label %64

63:                                               ; preds = %60
  br label %97

64:                                               ; preds = %60
  %65 = load ptr, ptr @gvNextInputGraph.oldfp, align 8, !tbaa !10
  %66 = load ptr, ptr @gvNextInputGraph.fp, align 8, !tbaa !10
  %67 = icmp ne ptr %65, %66
  br i1 %67, label %68, label %77

68:                                               ; preds = %64
  %69 = load ptr, ptr @gvNextInputGraph.fn, align 8, !tbaa !3
  %70 = icmp ne ptr %69, null
  br i1 %70, label %71, label %73

71:                                               ; preds = %68
  %72 = load ptr, ptr @gvNextInputGraph.fn, align 8, !tbaa !3
  br label %74

73:                                               ; preds = %68
  br label %74

74:                                               ; preds = %73, %71
  %75 = phi ptr [ %72, %71 ], [ @.str.38, %73 ]
  call void @agsetfile(ptr noundef %75)
  %76 = load ptr, ptr @gvNextInputGraph.fp, align 8, !tbaa !10
  store ptr %76, ptr @gvNextInputGraph.oldfp, align 8, !tbaa !10
  br label %77

77:                                               ; preds = %74, %64
  %78 = load ptr, ptr @gvNextInputGraph.fp, align 8, !tbaa !10
  %79 = call ptr @agread(ptr noundef %78, ptr noundef null)
  store ptr %79, ptr %3, align 8, !tbaa !14
  %80 = load ptr, ptr %3, align 8, !tbaa !14
  %81 = icmp ne ptr %80, null
  br i1 %81, label %82, label %89

82:                                               ; preds = %77
  %83 = load ptr, ptr %2, align 8, !tbaa !12
  %84 = load ptr, ptr %3, align 8, !tbaa !14
  %85 = load ptr, ptr @gvNextInputGraph.fn, align 8, !tbaa !3
  %86 = load i32, ptr @gvNextInputGraph.gidx, align 4, !tbaa !8
  %87 = add nsw i32 %86, 1
  store i32 %87, ptr @gvNextInputGraph.gidx, align 4, !tbaa !8
  %88 = call i32 @gvg_init(ptr noundef %83, ptr noundef %84, ptr noundef %85, i32 noundef %86)
  br label %97

89:                                               ; preds = %77
  %90 = load ptr, ptr @gvNextInputGraph.fp, align 8, !tbaa !10
  %91 = load ptr, ptr @stdin, align 8, !tbaa !10
  %92 = icmp ne ptr %90, %91
  br i1 %92, label %93, label %96

93:                                               ; preds = %89
  %94 = load ptr, ptr @gvNextInputGraph.fp, align 8, !tbaa !10
  %95 = call i32 @fclose(ptr noundef %94)
  br label %96

96:                                               ; preds = %93, %89
  store ptr null, ptr @gvNextInputGraph.fp, align 8, !tbaa !10
  store ptr null, ptr @gvNextInputGraph.oldfp, align 8, !tbaa !10
  store i32 0, ptr @gvNextInputGraph.gidx, align 4, !tbaa !8
  br label %4, !llvm.loop !91

97:                                               ; preds = %82, %63, %4
  %98 = load ptr, ptr %3, align 8, !tbaa !14
  call void @llvm.lifetime.end.p0(i64 8, ptr %3) #16
  ret ptr %98
}