; Function Attrs: nounwind uwtable
define ptr @gvNextInputGraph(ptr noundef %0) local_unnamed_addr #4 {
  %.pr = load ptr, ptr @gvNextInputGraph.fp, align 8, !tbaa !10
  %2 = icmp eq ptr %.pr, null
  br i1 %2, label %3, label %.critedge.thread

3:                                                ; preds = %.critedge24, %1
  %4 = getelementptr inbounds nuw i8, ptr %0, i64 88
  %5 = load ptr, ptr %4, align 8, !tbaa !53
  %6 = load ptr, ptr %5, align 8, !tbaa !40
  store ptr %6, ptr @gvNextInputGraph.fn, align 8, !tbaa !40
  %.not15 = icmp eq ptr %6, null
  %7 = getelementptr inbounds nuw i8, ptr %0, i64 96
  %8 = load i32, ptr %7, align 8, !tbaa !80
  %9 = add nsw i32 %8, 1
  store i32 %9, ptr %7, align 8, !tbaa !80
  br i1 %.not15, label %14, label %.preheader

.preheader:                                       ; preds = %3
  %10 = sext i32 %8 to i64
  %11 = getelementptr inbounds ptr, ptr %5, i64 %10
  %12 = load ptr, ptr %11, align 8, !tbaa !40
  store ptr %12, ptr @gvNextInputGraph.fn, align 8, !tbaa !40
  %.not1625 = icmp eq ptr %12, null
  br i1 %.not1625, label %.critedge.thread29, label %.lr.ph

.lr.ph:                                           ; preds = %.preheader
  %13 = getelementptr inbounds nuw i8, ptr %0, i64 8
  br label %18

14:                                               ; preds = %3
  %15 = icmp eq i32 %8, 0
  br i1 %15, label %16, label %.critedge.thread29

16:                                               ; preds = %14
  %17 = load ptr, ptr @stdin, align 8, !tbaa !10
  store ptr %17, ptr @gvNextInputGraph.fp, align 8, !tbaa !10
  br label %.critedge

18:                                               ; preds = %.lr.ph, %21
  %19 = phi ptr [ %12, %.lr.ph ], [ %34, %21 ]
  %20 = tail call ptr @gv_fopen(ptr noundef nonnull %19, ptr noundef nonnull @.str.36) #24
  store ptr %20, ptr @gvNextInputGraph.fp, align 8, !tbaa !10
  %.not17 = icmp eq ptr %20, null
  br i1 %.not17, label %21, label %.critedge.thread

21:                                               ; preds = %18
  %22 = load ptr, ptr %13, align 8, !tbaa !46
  %23 = load ptr, ptr @gvNextInputGraph.fn, align 8, !tbaa !40
  %24 = tail call ptr @__errno_location() #32
  %25 = load i32, ptr %24, align 4, !tbaa !3
  %26 = tail call ptr @strerror(i32 noundef %25) #24
  tail call void (ptr, ...) @agerrorf(ptr noundef nonnull @.str.37, ptr noundef %22, ptr noundef %23, ptr noundef %26) #24
  %27 = load i32, ptr @graphviz_errors, align 4, !tbaa !3
  %28 = add nsw i32 %27, 1
  store i32 %28, ptr @graphviz_errors, align 4, !tbaa !3
  %29 = load ptr, ptr %4, align 8, !tbaa !53
  %30 = load i32, ptr %7, align 8, !tbaa !80
  %31 = add nsw i32 %30, 1
  store i32 %31, ptr %7, align 8, !tbaa !80
  %32 = sext i32 %30 to i64
  %33 = getelementptr inbounds ptr, ptr %29, i64 %32
  %34 = load ptr, ptr %33, align 8, !tbaa !40
  store ptr %34, ptr @gvNextInputGraph.fn, align 8, !tbaa !40
  %.not16 = icmp eq ptr %34, null
  br i1 %.not16, label %.critedgethread-pre-split.loopexit, label %18, !llvm.loop !81

.critedgethread-pre-split.loopexit:               ; preds = %21
  %.pr22.pre = load ptr, ptr @gvNextInputGraph.fp, align 8, !tbaa !10
  br label %.critedge

.critedge:                                        ; preds = %.critedgethread-pre-split.loopexit, %16
  %35 = phi ptr [ %17, %16 ], [ %.pr22.pre, %.critedgethread-pre-split.loopexit ]
  %36 = icmp eq ptr %35, null
  br i1 %36, label %.critedge.thread29, label %.critedge.thread

.critedge.thread:                                 ; preds = %18, %1, %.critedge
  %37 = phi ptr [ %35, %.critedge ], [ %.pr, %1 ], [ %20, %18 ]
  %38 = load ptr, ptr @gvNextInputGraph.oldfp, align 8, !tbaa !10
  %.not18 = icmp eq ptr %38, %37
  br i1 %.not18, label %43, label %39

39:                                               ; preds = %.critedge.thread
  %40 = load ptr, ptr @gvNextInputGraph.fn, align 8, !tbaa !40
  %.not19 = icmp eq ptr %40, null
  %41 = select i1 %.not19, ptr @.str.38, ptr %40
  tail call void @agsetfile(ptr noundef nonnull %41) #24
  %42 = load ptr, ptr @gvNextInputGraph.fp, align 8, !tbaa !10
  store ptr %42, ptr @gvNextInputGraph.oldfp, align 8, !tbaa !10
  br label %43

43:                                               ; preds = %39, %.critedge.thread
  %44 = phi ptr [ %42, %39 ], [ %37, %.critedge.thread ]
  %45 = tail call ptr @agread(ptr noundef %44, ptr noundef null) #24
  %.not20 = icmp eq ptr %45, null
  br i1 %.not20, label %66, label %46

46:                                               ; preds = %43
  %47 = load ptr, ptr @gvNextInputGraph.fn, align 8, !tbaa !40
  %48 = load i32, ptr @gvNextInputGraph.gidx, align 4, !tbaa !3
  %49 = add nsw i32 %48, 1
  store i32 %49, ptr @gvNextInputGraph.gidx, align 4, !tbaa !3
  %50 = tail call noalias dereferenceable_or_null(40) ptr @calloc(i64 noundef 1, i64 noundef range(i64 1, 105) 40) #27
  %51 = icmp eq ptr %50, null
  br i1 %51, label %52, label %gv_alloc.exit.i

52:                                               ; preds = %46
  %53 = load ptr, ptr @stderr, align 8, !tbaa !10
  %54 = tail call i32 (ptr, ptr, ...) @fprintf(ptr noundef %53, ptr noundef nonnull @.str.135, i64 noundef 40) #28
  tail call fastcc void @graphviz_exit(i32 noundef 1) #25
  unreachable

gv_alloc.exit.i:                                  ; preds = %46
  %55 = getelementptr inbounds nuw i8, ptr %0, i64 104
  %56 = load ptr, ptr %55, align 8, !tbaa !12
  %.not.i = icmp eq ptr %56, null
  br i1 %.not.i, label %57, label %58

57:                                               ; preds = %gv_alloc.exit.i
  store ptr %50, ptr %55, align 8, !tbaa !12
  br label %gvg_init.exit

58:                                               ; preds = %gv_alloc.exit.i
  %59 = getelementptr inbounds nuw i8, ptr %0, i64 112
  %60 = load ptr, ptr %59, align 8, !tbaa !33
  %61 = getelementptr inbounds nuw i8, ptr %60, i64 8
  store ptr %50, ptr %61, align 8, !tbaa !34
  br label %gvg_init.exit

gvg_init.exit:                                    ; preds = %57, %58
  %62 = getelementptr inbounds nuw i8, ptr %0, i64 112
  store ptr %50, ptr %62, align 8, !tbaa !33
  store ptr %0, ptr %50, align 8, !tbaa !37
  %63 = getelementptr inbounds nuw i8, ptr %50, i64 32
  store ptr %45, ptr %63, align 8, !tbaa !38
  %64 = getelementptr inbounds nuw i8, ptr %50, i64 16
  store ptr %47, ptr %64, align 8, !tbaa !39
  %65 = getelementptr inbounds nuw i8, ptr %50, i64 24
  store i32 %48, ptr %65, align 8, !tbaa !82
  br label %.critedge.thread29

66:                                               ; preds = %43
  %67 = load ptr, ptr @gvNextInputGraph.fp, align 8, !tbaa !10
  %68 = load ptr, ptr @stdin, align 8, !tbaa !10
  %.not21 = icmp eq ptr %67, %68
  br i1 %.not21, label %.critedge24, label %69

69:                                               ; preds = %66
  %70 = tail call i32 @fclose(ptr noundef %67)
  br label %.critedge24

.critedge24:                                      ; preds = %69, %66
  store ptr null, ptr @gvNextInputGraph.fp, align 8, !tbaa !10
  store ptr null, ptr @gvNextInputGraph.oldfp, align 8, !tbaa !10
  store i32 0, ptr @gvNextInputGraph.gidx, align 4, !tbaa !3
  br label %3

.critedge.thread29:                               ; preds = %14, %.preheader, %.critedge, %gvg_init.exit
  %.1 = phi ptr [ null, %.critedge ], [ %45, %gvg_init.exit ], [ null, %.preheader ], [ null, %14 ]
  ret ptr %.1
}